target datalayout = "e-m:e-p270:32:32-p271:32:32-p272:64:64-i64:64-i128:128-f80:128-n8:16:32:64-S128"
target triple = "x86_64-pc-linux-gnu"

%struct._object = type { %union.anon, ptr }
%union.anon = type { i64 }
%struct.PyVarObject = type { %struct._object, i64 }
%struct.RFILE = type { ptr, i32, ptr, ptr, ptr, ptr, i64, ptr, i32 }

@_Py_NoneStruct = external global %struct._object, align 8
@PyExc_ValueError = external global ptr, align 8
@.str.31 = private unnamed_addr constant [40 x i8] c"bad marshal data (index list too large)\00", align 1

; Function Attrs: inlinehint nounwind uwtable
define internal i64 @Py_SIZE(ptr noundef %0) #5 {
  %2 = alloca ptr, align 8
  store ptr %0, ptr %2, align 8, !tbaa !25
  %3 = load ptr, ptr %2, align 8, !tbaa !25
  %4 = getelementptr inbounds nuw %struct.PyVarObject, ptr %3, i32 0, i32 1
  %5 = load i64, ptr %4, align 8, !tbaa !45
  ret i64 %5
}

; Function Attrs: inlinehint nounwind uwtable
define internal i64 @PyList_GET_SIZE(ptr noundef %0) #5 {
  %2 = alloca ptr, align 8
  %3 = alloca ptr, align 8
  store ptr %0, ptr %2, align 8, !tbaa !25
  call void @llvm.lifetime.start.p0(i64 8, ptr %3) #11
  %4 = load ptr, ptr %2, align 8, !tbaa !25
  store ptr %4, ptr %3, align 8, !tbaa !23
  %5 = load ptr, ptr %3, align 8, !tbaa !23
  %6 = call i64 @Py_SIZE(ptr noundef %5)
  call void @llvm.lifetime.end.p0(i64 8, ptr %3) #11
  ret i64 %6
}

; Function Attrs: nounwind uwtable
define internal i64 @r_ref_reserve(i32 noundef %0, ptr noundef %1) #0 {
  %3 = alloca i64, align 8
  %4 = alloca i32, align 4
  %5 = alloca ptr, align 8
  %6 = alloca i64, align 8
  %7 = alloca i32, align 4
  store i32 %0, ptr %4, align 4, !tbaa !11
  store ptr %1, ptr %5, align 8, !tbaa !23
  %8 = load i32, ptr %4, align 4, !tbaa !11
  %9 = icmp ne i32 %8, 0
  br i1 %9, label %10, label %29

10:                                               ; preds = %2
  call void @llvm.lifetime.start.p0(i64 8, ptr %6) #11
  %11 = load ptr, ptr %5, align 8, !tbaa !23
  %12 = getelementptr inbounds nuw %struct.RFILE, ptr %11, i32 0, i32 7
  %13 = load ptr, ptr %12, align 8, !tbaa !43
  %14 = call i64 @PyList_GET_SIZE(ptr noundef %13)
  store i64 %14, ptr %6, align 8, !tbaa !4
  %15 = load i64, ptr %6, align 8, !tbaa !4
  %16 = icmp sge i64 %15, 2147483646
  br i1 %16, label %17, label %19

17:                                               ; preds = %10
  %18 = load ptr, ptr @PyExc_ValueError, align 8, !tbaa !25
  call void @PyErr_SetString(ptr noundef %18, ptr noundef @.str.31)
  store i64 -1, ptr %3, align 8
  store i32 1, ptr %7, align 4
  br label %28

19:                                               ; preds = %10
  %20 = load ptr, ptr %5, align 8, !tbaa !23
  %21 = getelementptr inbounds nuw %struct.RFILE, ptr %20, i32 0, i32 7
  %22 = load ptr, ptr %21, align 8, !tbaa !43
  %23 = call i32 @PyList_Append(ptr noundef %22, ptr noundef @_Py_NoneStruct)
  %24 = icmp slt i32 %23, 0
  br i1 %24, label %25, label %26

25:                                               ; preds = %19
  store i64 -1, ptr %3, align 8
  store i32 1, ptr %7, align 4
  br label %28

26:                                               ; preds = %19
  %27 = load i64, ptr %6, align 8, !tbaa !4
  store i64 %27, ptr %3, align 8
  store i32 1, ptr %7, align 4
  br label %28

28:                                               ; preds = %26, %25, %17
  call void @llvm.lifetime.end.p0(i64 8, ptr %6) #11
  br label %30

29:                                               ; preds = %2
  store i64 0, ptr %3, align 8
  br label %30

30:                                               ; preds = %29, %28
  %31 = load i64, ptr %3, align 8
  ret i64 %31
}