; Function Attrs: nounwind uwtable
define internal fastcc range(i64 -9223372036854775808, 2147483646) i64 @r_ref_reserve(i32 noundef range(i32 0, -127) %0, ptr noundef nonnull readonly captures(none) %1) unnamed_addr #0 {
  %.not = icmp eq i32 %0, 0
  br i1 %.not, label %13, label %3

3:                                                ; preds = %2
  %4 = getelementptr inbounds nuw i8, ptr %1, i64 56
  %5 = load ptr, ptr %4, align 8, !tbaa !51
  %6 = getelementptr i8, ptr %5, i64 16
  %.val = load i64, ptr %6, align 8, !tbaa !19
  %7 = icmp sgt i64 %.val, 2147483645
  br i1 %7, label %8, label %10

8:                                                ; preds = %3
  %9 = load ptr, ptr @PyExc_ValueError, align 8, !tbaa !29
  tail call void @PyErr_SetString(ptr noundef %9, ptr noundef nonnull @.str.31) #11
  br label %13

10:                                               ; preds = %3
  %11 = tail call i32 @PyList_Append(ptr noundef nonnull %5, ptr noundef nonnull @_Py_NoneStruct) #11
  %12 = icmp slt i32 %11, 0
  %. = select i1 %12, i64 -1, i64 %.val
  br label %13

13:                                               ; preds = %2, %8, %10
  %.1 = phi i64 [ -1, %8 ], [ %., %10 ], [ 0, %2 ]
  ret i64 %.1
}